target datalayout = "e-m:e-p270:32:32-p271:32:32-p272:64:64-i64:64-i128:128-f80:128-n8:16:32:64-S128"
target triple = "x86_64-pc-linux-gnu"

%struct._VAPictureParameterBufferJPEGBaseline = type { i16, i16, [255 x %struct.anon], i8, i8, i32, %struct._VARectangle, [5 x i32] }
%struct.anon = type { i8, i8, i8, i8 }
%struct._VARectangle = type { i16, i16, i16, i16 }
%struct.AVCodecContext = type { ptr, i32, i32, ptr, i32, i32, ptr, ptr, ptr, i64, i32, i32, ptr, i32, %struct.AVRational, %struct.AVRational, %struct.AVRational, i32, i32, i32, i32, i32, %struct.AVRational, i32, i32, i32, i32, i32, i32, i32, i32, i32, i32, i32, ptr, ptr, i32, float, float, float, float, float, float, float, float, float, i32, i32, i32, i32, i32, i32, i32, i32, i32, i32, i32, i32, ptr, ptr, ptr, i32, i32, i32, i32, i32, i32, i32, i32, i32, i32, %struct.AVChannelLayout, i32, i32, i32, i32, i32, i32, i32, i32, ptr, i32, i32, i32, float, float, i32, i32, i32, i32, i32, ptr, i64, i64, float, float, i32, i32, ptr, ptr, i32, i32, i32, i32, i32, ptr, ptr, ptr, ptr, i32, i32, [8 x i64], i32, i32, i32, i32, i32, i32, i32, ptr, ptr, i32, i32, i32, i32, i32, i32, i32, i32, i32, i32, ptr, ptr, i32, i32, ptr, ptr, ptr, ptr, i32, i32, i64, i32, i32, i64, ptr, i64, ptr, i32, ptr, i32 }
%struct.AVRational = type { i32, i32 }
%struct.AVChannelLayout = type { i32, i32, %union.anon, ptr }
%union.anon = type { i64 }
%struct.MJpegDecodeContext = type { ptr, ptr, %struct.GetBitContext, i32, i32, i32, ptr, [4 x [64 x i16]], [3 x [4 x %struct.VLC]], [4 x i32], i32, i32, i32, i32, i32, i32, i32, i32, i32, [4 x i8], [4 x i8], i32, i32, i32, i32, i32, i32, i32, i32, i32, i32, i32, i32, i32, i32, i32, i32, i32, [4 x i32], [4 x i32], [4 x i32], [4 x i32], [4 x i32], [4 x i32], [4 x i32], [4 x i32], [4 x i32], [4 x i32], [4 x i32], i32, i32, [4 x i32], [4 x i32], ptr, ptr, i32, [4 x i32], ptr, [64 x i16], [4 x ptr], [4 x ptr], [4 x i64], i32, i32, [64 x i8], %struct.BlockDSPContext, %struct.HpelDSPContext, %struct.IDCTDSPContext, i32, i32, i32, i32, i32, i32, i32, i32, i32, ptr, i32, i32, ptr, ptr, ptr, ptr, i32, i32, ptr, i32, i32, ptr, i64, ptr, i64, [2 x [4 x [16 x i8]]], [2 x [4 x [256 x i8]]], i32, i32, ptr, ptr, [8 x i8] }
%struct.GetBitContext = type { ptr, ptr, i32, i32, i32 }
%struct.VLC = type { i32, ptr, i32, i32 }
%struct.BlockDSPContext = type { ptr, ptr, [2 x ptr] }
%struct.HpelDSPContext = type { [4 x [4 x ptr]], [4 x [4 x ptr]], [4 x [4 x ptr]], [4 x ptr] }
%struct.IDCTDSPContext = type { ptr, ptr, ptr, ptr, ptr, ptr, [64 x i8], i32, i32 }
%struct.VAAPIDecodePicture = type { i32, i32, ptr, i32, i32, ptr, i32 }
%struct.AVFrame = type { [8 x ptr], [8 x i32], ptr, i32, i32, i32, i32, i32, %struct.AVRational, i64, i64, %struct.AVRational, i32, ptr, i32, i32, [8 x ptr], ptr, i32, ptr, i32, i32, i32, i32, i32, i32, i32, i64, ptr, i32, ptr, ptr, i64, i64, i64, i64, ptr, %struct.AVChannelLayout, i64 }

; Function Attrs: inlinehint nounwind uwtable
define internal i32 @ff_vaapi_get_surface_id(ptr noundef %0) #3 {
  %2 = alloca ptr, align 8
  store ptr %0, ptr %2, align 8, !tbaa !91
  %3 = load ptr, ptr %2, align 8, !tbaa !91
  %4 = getelementptr inbounds nuw %struct.AVFrame, ptr %3, i32 0, i32 0
  %5 = getelementptr inbounds [8 x ptr], ptr %4, i64 0, i64 3
  %6 = load ptr, ptr %5, align 8, !tbaa !11
  %7 = ptrtoint ptr %6 to i64
  %8 = trunc i64 %7 to i32
  ret i32 %8
}

; Function Attrs: nounwind uwtable
define internal i32 @vaapi_mjpeg_start_frame(ptr noundef %0, ptr noundef %1, ptr noundef %2, i32 noundef %3) #0 {
  %5 = alloca i32, align 4
  %6 = alloca ptr, align 8
  %7 = alloca ptr, align 8
  %8 = alloca ptr, align 8
  %9 = alloca i32, align 4
  %10 = alloca ptr, align 8
  %11 = alloca ptr, align 8
  %12 = alloca %struct._VAPictureParameterBufferJPEGBaseline, align 4
  %13 = alloca i32, align 4
  %14 = alloca i32, align 4
  %15 = alloca %struct._VAPictureParameterBufferJPEGBaseline, align 4
  %16 = alloca i32, align 4
  store ptr %0, ptr %6, align 8, !tbaa !4
  store ptr %1, ptr %7, align 8, !tbaa !9
  store ptr %2, ptr %8, align 8, !tbaa !11
  store i32 %3, ptr %9, align 4, !tbaa !13
  call void @llvm.lifetime.start.p0(i64 8, ptr %10) #6
  %17 = load ptr, ptr %6, align 8, !tbaa !4
  %18 = getelementptr inbounds nuw %struct.AVCodecContext, ptr %17, i32 0, i32 6
  %19 = load ptr, ptr %18, align 8, !tbaa !15
  store ptr %19, ptr %10, align 8, !tbaa !32
  call void @llvm.lifetime.start.p0(i64 8, ptr %11) #6
  %20 = load ptr, ptr %10, align 8, !tbaa !32
  %21 = getelementptr inbounds nuw %struct.MJpegDecodeContext, ptr %20, i32 0, i32 97
  %22 = load ptr, ptr %21, align 8, !tbaa !34
  store ptr %22, ptr %11, align 8, !tbaa !46
  call void @llvm.lifetime.start.p0(i64 1060, ptr %12) #6
  call void @llvm.lifetime.start.p0(i64 4, ptr %13) #6
  call void @llvm.lifetime.start.p0(i64 4, ptr %14) #6
  %23 = load ptr, ptr %10, align 8, !tbaa !32
  %24 = getelementptr inbounds nuw %struct.MJpegDecodeContext, ptr %23, i32 0, i32 54
  %25 = load ptr, ptr %24, align 8, !tbaa !48
  %26 = call i32 @ff_vaapi_get_surface_id(ptr noundef %25)
  %27 = load ptr, ptr %11, align 8, !tbaa !46
  %28 = getelementptr inbounds nuw %struct.VAAPIDecodePicture, ptr %27, i32 0, i32 0
  store i32 %26, ptr %28, align 8, !tbaa !49
  call void @llvm.memset.p0.i64(ptr align 4 %15, i8 0, i64 1060, i1 false)
  %29 = getelementptr inbounds nuw %struct._VAPictureParameterBufferJPEGBaseline, ptr %15, i32 0, i32 0
  %30 = load ptr, ptr %6, align 8, !tbaa !4
  %31 = getelementptr inbounds nuw %struct.AVCodecContext, ptr %30, i32 0, i32 18
  %32 = load i32, ptr %31, align 8, !tbaa !51
  %33 = trunc i32 %32 to i16
  store i16 %33, ptr %29, align 4, !tbaa !52
  %34 = getelementptr inbounds nuw %struct._VAPictureParameterBufferJPEGBaseline, ptr %15, i32 0, i32 1
  %35 = load ptr, ptr %6, align 8, !tbaa !4
  %36 = getelementptr inbounds nuw %struct.AVCodecContext, ptr %35, i32 0, i32 19
  %37 = load i32, ptr %36, align 4, !tbaa !56
  %38 = trunc i32 %37 to i16
  store i16 %38, ptr %34, align 2, !tbaa !57
  %39 = getelementptr inbounds nuw %struct._VAPictureParameterBufferJPEGBaseline, ptr %15, i32 0, i32 3
  %40 = load ptr, ptr %10, align 8, !tbaa !32
  %41 = getelementptr inbounds nuw %struct.MJpegDecodeContext, ptr %40, i32 0, i32 37
  %42 = load i32, ptr %41, align 4, !tbaa !58
  %43 = trunc i32 %42 to i8
  store i8 %43, ptr %39, align 4, !tbaa !59
  call void @llvm.memcpy.p0.p0.i64(ptr align 4 %12, ptr align 4 %15, i64 1060, i1 false), !tbaa.struct !60
  store i32 0, ptr %14, align 4, !tbaa !13
  br label %44

44:                                               ; preds = %99, %4
  %45 = load i32, ptr %14, align 4, !tbaa !13
  %46 = load ptr, ptr %10, align 8, !tbaa !32
  %47 = getelementptr inbounds nuw %struct.MJpegDecodeContext, ptr %46, i32 0, i32 37
  %48 = load i32, ptr %47, align 4, !tbaa !58
  %49 = icmp slt i32 %45, %48
  br i1 %49, label %50, label %102

50:                                               ; preds = %44
  %51 = load ptr, ptr %10, align 8, !tbaa !32
  %52 = getelementptr inbounds nuw %struct.MJpegDecodeContext, ptr %51, i32 0, i32 39
  %53 = load i32, ptr %14, align 4, !tbaa !13
  %54 = sext i32 %53 to i64
  %55 = getelementptr inbounds [4 x i32], ptr %52, i64 0, i64 %54
  %56 = load i32, ptr %55, align 4, !tbaa !13
  %57 = trunc i32 %56 to i8
  %58 = getelementptr inbounds nuw %struct._VAPictureParameterBufferJPEGBaseline, ptr %12, i32 0, i32 2
  %59 = load i32, ptr %14, align 4, !tbaa !13
  %60 = sext i32 %59 to i64
  %61 = getelementptr inbounds [255 x %struct.anon], ptr %58, i64 0, i64 %60
  %62 = getelementptr inbounds nuw %struct.anon, ptr %61, i32 0, i32 0
  store i8 %57, ptr %62, align 4, !tbaa !63
  %63 = load ptr, ptr %10, align 8, !tbaa !32
  %64 = getelementptr inbounds nuw %struct.MJpegDecodeContext, ptr %63, i32 0, i32 40
  %65 = load i32, ptr %14, align 4, !tbaa !13
  %66 = sext i32 %65 to i64
  %67 = getelementptr inbounds [4 x i32], ptr %64, i64 0, i64 %66
  %68 = load i32, ptr %67, align 4, !tbaa !13
  %69 = trunc i32 %68 to i8
  %70 = getelementptr inbounds nuw %struct._VAPictureParameterBufferJPEGBaseline, ptr %12, i32 0, i32 2
  %71 = load i32, ptr %14, align 4, !tbaa !13
  %72 = sext i32 %71 to i64
  %73 = getelementptr inbounds [255 x %struct.anon], ptr %70, i64 0, i64 %72
  %74 = getelementptr inbounds nuw %struct.anon, ptr %73, i32 0, i32 1
  store i8 %69, ptr %74, align 1, !tbaa !65
  %75 = load ptr, ptr %10, align 8, !tbaa !32
  %76 = getelementptr inbounds nuw %struct.MJpegDecodeContext, ptr %75, i32 0, i32 41
  %77 = load i32, ptr %14, align 4, !tbaa !13
  %78 = sext i32 %77 to i64
  %79 = getelementptr inbounds [4 x i32], ptr %76, i64 0, i64 %78
  %80 = load i32, ptr %79, align 4, !tbaa !13
  %81 = trunc i32 %80 to i8
  %82 = getelementptr inbounds nuw %struct._VAPictureParameterBufferJPEGBaseline, ptr %12, i32 0, i32 2
  %83 = load i32, ptr %14, align 4, !tbaa !13
  %84 = sext i32 %83 to i64
  %85 = getelementptr inbounds [255 x %struct.anon], ptr %82, i64 0, i64 %84
  %86 = getelementptr inbounds nuw %struct.anon, ptr %85, i32 0, i32 2
  store i8 %81, ptr %86, align 2, !tbaa !66
  %87 = load ptr, ptr %10, align 8, !tbaa !32
  %88 = getelementptr inbounds nuw %struct.MJpegDecodeContext, ptr %87, i32 0, i32 51
  %89 = load i32, ptr %14, align 4, !tbaa !13
  %90 = sext i32 %89 to i64
  %91 = getelementptr inbounds [4 x i32], ptr %88, i64 0, i64 %90
  %92 = load i32, ptr %91, align 4, !tbaa !13
  %93 = trunc i32 %92 to i8
  %94 = getelementptr inbounds nuw %struct._VAPictureParameterBufferJPEGBaseline, ptr %12, i32 0, i32 2
  %95 = load i32, ptr %14, align 4, !tbaa !13
  %96 = sext i32 %95 to i64
  %97 = getelementptr inbounds [255 x %struct.anon], ptr %94, i64 0, i64 %96
  %98 = getelementptr inbounds nuw %struct.anon, ptr %97, i32 0, i32 3
  store i8 %93, ptr %98, align 1, !tbaa !67
  br label %99

99:                                               ; preds = %50
  %100 = load i32, ptr %14, align 4, !tbaa !13
  %101 = add nsw i32 %100, 1
  store i32 %101, ptr %14, align 4, !tbaa !13
  br label %44, !llvm.loop !68

102:                                              ; preds = %44
  %103 = load ptr, ptr %6, align 8, !tbaa !4
  %104 = load ptr, ptr %11, align 8, !tbaa !46
  %105 = call i32 @ff_vaapi_decode_make_param_buffer(ptr noundef %103, ptr noundef %104, i32 noundef 0, ptr noundef %12, i64 noundef 1060)
  store i32 %105, ptr %13, align 4, !tbaa !13
  %106 = load i32, ptr %13, align 4, !tbaa !13
  %107 = icmp slt i32 %106, 0
  br i1 %107, label %108, label %109

108:                                              ; preds = %102
  br label %110

109:                                              ; preds = %102
  store i32 0, ptr %5, align 4
  store i32 1, ptr %16, align 4
  br label %115

110:                                              ; preds = %108
  %111 = load ptr, ptr %6, align 8, !tbaa !4
  %112 = load ptr, ptr %11, align 8, !tbaa !46
  %113 = call i32 @ff_vaapi_decode_cancel(ptr noundef %111, ptr noundef %112)
  %114 = load i32, ptr %13, align 4, !tbaa !13
  store i32 %114, ptr %5, align 4
  store i32 1, ptr %16, align 4
  br label %115

115:                                              ; preds = %110, %109
  call void @llvm.lifetime.end.p0(i64 4, ptr %14) #6
  call void @llvm.lifetime.end.p0(i64 4, ptr %13) #6
  call void @llvm.lifetime.end.p0(i64 1060, ptr %12) #6
  call void @llvm.lifetime.end.p0(i64 8, ptr %11) #6
  call void @llvm.lifetime.end.p0(i64 8, ptr %10) #6
  %116 = load i32, ptr %5, align 4
  ret i32 %116
}