; Function Attrs: nounwind uwtable
define internal range(i32 -2147483648, 1) i32 @vaapi_mjpeg_start_frame(ptr noundef %0, ptr readnone captures(none) %1, ptr readnone captures(none) %2, i32 %3) #0 {
  %5 = alloca %struct._VAPictureParameterBufferJPEGBaseline, align 4
  %6 = getelementptr inbounds nuw i8, ptr %0, i64 32
  %7 = load ptr, ptr %6, align 8, !tbaa !4
  %8 = getelementptr inbounds nuw i8, ptr %7, i64 4456
  %9 = load ptr, ptr %8, align 8, !tbaa !27
  call void @llvm.lifetime.start.p0(i64 1060, ptr nonnull %5) #4
  %10 = getelementptr inbounds nuw i8, ptr %7, i64 1224
  %11 = load ptr, ptr %10, align 8, !tbaa !40
  %12 = getelementptr i8, ptr %11, i64 24
  %.val = load ptr, ptr %12, align 8, !tbaa !41
  %13 = ptrtoint ptr %.val to i64
  %14 = trunc i64 %13 to i32
  store i32 %14, ptr %9, align 8, !tbaa !42
  %.sroa.4.0..sroa_idx = getelementptr inbounds nuw i8, ptr %5, i64 4
  call void @llvm.memset.p0.i64(ptr noundef nonnull align 4 dereferenceable(1020) %.sroa.4.0..sroa_idx, i8 0, i64 1020, i1 false)
  %.sroa.5.0..sroa_idx = getelementptr inbounds nuw i8, ptr %5, i64 1025
  call void @llvm.memset.p0.i64(ptr noundef nonnull align 1 dereferenceable(35) %.sroa.5.0..sroa_idx, i8 0, i64 35, i1 false)
  %15 = getelementptr inbounds nuw i8, ptr %0, i64 112
  %16 = load i32, ptr %15, align 8, !tbaa !44
  %17 = trunc i32 %16 to i16
  %18 = getelementptr inbounds nuw i8, ptr %0, i64 116
  %19 = load i32, ptr %18, align 4, !tbaa !45
  %20 = trunc i32 %19 to i16
  %21 = getelementptr inbounds nuw i8, ptr %7, i64 996
  %22 = load i32, ptr %21, align 4, !tbaa !46
  %23 = trunc i32 %22 to i8
  store i16 %17, ptr %5, align 4, !tbaa !47
  %.sroa.3.0..sroa_idx = getelementptr inbounds nuw i8, ptr %5, i64 2
  store i16 %20, ptr %.sroa.3.0..sroa_idx, align 2, !tbaa !47
  %.sroa.41.0..sroa_idx = getelementptr inbounds nuw i8, ptr %5, i64 1024
  store i8 %23, ptr %.sroa.41.0..sroa_idx, align 4, !tbaa !49
  %24 = icmp sgt i32 %22, 0
  br i1 %24, label %.lr.ph, label %._crit_edge

.lr.ph:                                           ; preds = %4
  %25 = getelementptr inbounds nuw i8, ptr %7, i64 1016
  %26 = getelementptr inbounds nuw i8, ptr %7, i64 1032
  %27 = getelementptr inbounds nuw i8, ptr %7, i64 1048
  %28 = getelementptr inbounds nuw i8, ptr %7, i64 1184
  %wide.trip.count = zext nneg i32 %22 to i64
  br label %29

29:                                               ; preds = %.lr.ph, %29
  %indvars.iv = phi i64 [ 0, %.lr.ph ], [ %indvars.iv.next, %29 ]
  %30 = getelementptr inbounds nuw [4 x i32], ptr %25, i64 0, i64 %indvars.iv
  %31 = load i32, ptr %30, align 4, !tbaa !50
  %32 = trunc i32 %31 to i8
  %33 = getelementptr inbounds nuw [255 x %struct.anon], ptr %.sroa.4.0..sroa_idx, i64 0, i64 %indvars.iv
  store i8 %32, ptr %33, align 4, !tbaa !51
  %34 = getelementptr inbounds nuw [4 x i32], ptr %26, i64 0, i64 %indvars.iv
  %35 = load i32, ptr %34, align 4, !tbaa !50
  %36 = trunc i32 %35 to i8
  %37 = getelementptr inbounds nuw i8, ptr %33, i64 1
  store i8 %36, ptr %37, align 1, !tbaa !53
  %38 = getelementptr inbounds nuw [4 x i32], ptr %27, i64 0, i64 %indvars.iv
  %39 = load i32, ptr %38, align 4, !tbaa !50
  %40 = trunc i32 %39 to i8
  %41 = getelementptr inbounds nuw i8, ptr %33, i64 2
  store i8 %40, ptr %41, align 2, !tbaa !54
  %42 = getelementptr inbounds nuw [4 x i32], ptr %28, i64 0, i64 %indvars.iv
  %43 = load i32, ptr %42, align 4, !tbaa !50
  %44 = trunc i32 %43 to i8
  %45 = getelementptr inbounds nuw i8, ptr %33, i64 3
  store i8 %44, ptr %45, align 1, !tbaa !55
  %indvars.iv.next = add nuw nsw i64 %indvars.iv, 1
  %exitcond.not = icmp eq i64 %indvars.iv.next, %wide.trip.count
  br i1 %exitcond.not, label %._crit_edge, label %29, !llvm.loop !56

._crit_edge:                                      ; preds = %29, %4
  %46 = call i32 @ff_vaapi_decode_make_param_buffer(ptr noundef nonnull %0, ptr noundef nonnull %9, i32 noundef 0, ptr noundef nonnull %5, i64 noundef 1060) #4
  %47 = icmp slt i32 %46, 0
  br i1 %47, label %48, label %50

48:                                               ; preds = %._crit_edge
  %49 = call i32 @ff_vaapi_decode_cancel(ptr noundef nonnull %0, ptr noundef nonnull %9) #4
  br label %50

50:                                               ; preds = %._crit_edge, %48
  %.029 = phi i32 [ %46, %48 ], [ 0, %._crit_edge ]
  call void @llvm.lifetime.end.p0(i64 1060, ptr nonnull %5) #4
  ret i32 %.029
}